
BugProgramm.elf:     file format elf32-avr

Sections:
Idx Name          Size      VMA       LMA       File off  Algn
  0 .text         0000075e  00000000  00000000  00000094  2**1
                  CONTENTS, ALLOC, LOAD, READONLY, CODE
  1 .data         00000026  00800060  0000075e  000007f2  2**0
                  CONTENTS, ALLOC, LOAD, DATA
  2 .bss          00000035  00800086  00800086  00000818  2**0
                  ALLOC
  3 .comment      00000030  00000000  00000000  00000818  2**0
                  CONTENTS, READONLY
  4 .note.gnu.avr.deviceinfo 0000003c  00000000  00000000  00000848  2**2
                  CONTENTS, READONLY
  5 .debug_aranges 00000188  00000000  00000000  00000884  2**0
                  CONTENTS, READONLY, DEBUGGING
  6 .debug_info   000018c4  00000000  00000000  00000a0c  2**0
                  CONTENTS, READONLY, DEBUGGING
  7 .debug_abbrev 0000036e  00000000  00000000  000022d0  2**0
                  CONTENTS, READONLY, DEBUGGING
  8 .debug_line   00000b45  00000000  00000000  0000263e  2**0
                  CONTENTS, READONLY, DEBUGGING
  9 .debug_frame  000004e0  00000000  00000000  00003184  2**2
                  CONTENTS, READONLY, DEBUGGING
 10 .debug_str    00000656  00000000  00000000  00003664  2**0
                  CONTENTS, READONLY, DEBUGGING
 11 .debug_loc    000013f6  00000000  00000000  00003cba  2**0
                  CONTENTS, READONLY, DEBUGGING
 12 .debug_ranges 00000190  00000000  00000000  000050b0  2**0
                  CONTENTS, READONLY, DEBUGGING

Disassembly of section .text:

00000000 <__vectors>:
   0:	12 c0       	rjmp	.+36     	; 0x26 <__ctors_end>
   2:	2c c0       	rjmp	.+88     	; 0x5c <__bad_interrupt>
   4:	2b c0       	rjmp	.+86     	; 0x5c <__bad_interrupt>
   6:	2a c0       	rjmp	.+84     	; 0x5c <__bad_interrupt>
   8:	29 c0       	rjmp	.+82     	; 0x5c <__bad_interrupt>
   a:	28 c0       	rjmp	.+80     	; 0x5c <__bad_interrupt>
   c:	27 c0       	rjmp	.+78     	; 0x5c <__bad_interrupt>
   e:	26 c0       	rjmp	.+76     	; 0x5c <__bad_interrupt>
  10:	25 c0       	rjmp	.+74     	; 0x5c <__bad_interrupt>
  12:	24 c0       	rjmp	.+72     	; 0x5c <__bad_interrupt>
  14:	23 c0       	rjmp	.+70     	; 0x5c <__bad_interrupt>
  16:	8f c3       	rjmp	.+1822   	; 0x736 <__vector_11>
  18:	21 c0       	rjmp	.+66     	; 0x5c <__bad_interrupt>
  1a:	20 c0       	rjmp	.+64     	; 0x5c <__bad_interrupt>
  1c:	1f c0       	rjmp	.+62     	; 0x5c <__bad_interrupt>
  1e:	1e c0       	rjmp	.+60     	; 0x5c <__bad_interrupt>
  20:	1d c0       	rjmp	.+58     	; 0x5c <__bad_interrupt>
  22:	1c c0       	rjmp	.+56     	; 0x5c <__bad_interrupt>
  24:	1b c0       	rjmp	.+54     	; 0x5c <__bad_interrupt>

00000026 <__ctors_end>:
  26:	11 24       	eor	r1, r1
  28:	1f be       	out	0x3f, r1	; 63
  2a:	cf e5       	ldi	r28, 0x5F	; 95
  2c:	d4 e0       	ldi	r29, 0x04	; 4
  2e:	de bf       	out	0x3e, r29	; 62
  30:	cd bf       	out	0x3d, r28	; 61

00000032 <__do_copy_data>:
  32:	10 e0       	ldi	r17, 0x00	; 0
  34:	a0 e6       	ldi	r26, 0x60	; 96
  36:	b0 e0       	ldi	r27, 0x00	; 0
  38:	ee e5       	ldi	r30, 0x5E	; 94
  3a:	f7 e0       	ldi	r31, 0x07	; 7
  3c:	02 c0       	rjmp	.+4      	; 0x42 <__SREG__+0x3>
  3e:	05 90       	lpm	r0, Z+
  40:	0d 92       	st	X+, r0
  42:	a6 38       	cpi	r26, 0x86	; 134
  44:	b1 07       	cpc	r27, r17
  46:	d9 f7       	brne	.-10     	; 0x3e <__SP_H__>

00000048 <__do_clear_bss>:
  48:	20 e0       	ldi	r18, 0x00	; 0
  4a:	a6 e8       	ldi	r26, 0x86	; 134
  4c:	b0 e0       	ldi	r27, 0x00	; 0
  4e:	01 c0       	rjmp	.+2      	; 0x52 <.do_clear_bss_start>

00000050 <.do_clear_bss_loop>:
  50:	1d 92       	st	X+, r1

00000052 <.do_clear_bss_start>:
  52:	ab 3b       	cpi	r26, 0xBB	; 187
  54:	b2 07       	cpc	r27, r18
  56:	e1 f7       	brne	.-8      	; 0x50 <.do_clear_bss_loop>
  58:	f8 d2       	rcall	.+1520   	; 0x64a <main>
  5a:	7f c3       	rjmp	.+1790   	; 0x75a <_exit>

0000005c <__bad_interrupt>:
  5c:	d1 cf       	rjmp	.-94     	; 0x0 <__vectors>

0000005e <spim_init>:
		
	}
	
	
	
  5e:	87 b3       	in	r24, 0x17	; 23
  60:	8c 62       	ori	r24, 0x2C	; 44
  62:	87 bb       	out	0x17, r24	; 23
  64:	8d b1       	in	r24, 0x0d	; 13
  66:	80 65       	ori	r24, 0x50	; 80
  68:	8d b9       	out	0x0d, r24	; 13
  6a:	70 9a       	sbi	0x0e, 0	; 14
  6c:	08 95       	ret

0000006e <SPI_send8b>:
  6e:	61 15       	cp	r22, r1
  70:	71 05       	cpc	r23, r1
  72:	51 f0       	breq	.+20     	; 0x88 <SPI_send8b+0x1a>
  74:	fc 01       	movw	r30, r24
  76:	68 0f       	add	r22, r24
  78:	79 1f       	adc	r23, r25
  7a:	91 91       	ld	r25, Z+
  7c:	9f b9       	out	0x0f, r25	; 15
  7e:	77 9b       	sbis	0x0e, 7	; 14
  80:	fe cf       	rjmp	.-4      	; 0x7e <SPI_send8b+0x10>
  82:	e6 17       	cp	r30, r22
  84:	f7 07       	cpc	r31, r23
  86:	c9 f7       	brne	.-14     	; 0x7a <SPI_send8b+0xc>
  88:	08 95       	ret

0000008a <SPI_recv8b>:
  8a:	61 15       	cp	r22, r1
  8c:	71 05       	cpc	r23, r1
  8e:	61 f0       	breq	.+24     	; 0xa8 <SPI_recv8b+0x1e>
  90:	fc 01       	movw	r30, r24
  92:	68 0f       	add	r22, r24
  94:	79 1f       	adc	r23, r25
  96:	8f ef       	ldi	r24, 0xFF	; 255
  98:	8f b9       	out	0x0f, r24	; 15
  9a:	77 9b       	sbis	0x0e, 7	; 14
  9c:	fe cf       	rjmp	.-4      	; 0x9a <SPI_recv8b+0x10>
  9e:	9f b1       	in	r25, 0x0f	; 15
  a0:	91 93       	st	Z+, r25
  a2:	e6 17       	cp	r30, r22
  a4:	f7 07       	cpc	r31, r23
  a6:	c1 f7       	brne	.-16     	; 0x98 <SPI_recv8b+0xe>
  a8:	08 95       	ret

000000aa <SPI_SendRecvByte>:
  aa:	8f b9       	out	0x0f, r24	; 15
  ac:	77 9b       	sbis	0x0e, 7	; 14
  ae:	fe cf       	rjmp	.-4      	; 0xac <SPI_SendRecvByte+0x2>
  b0:	8f b1       	in	r24, 0x0f	; 15
  b2:	08 95       	ret

000000b4 <nrf24_read>:
  b4:	0f 93       	push	r16
  b6:	1f 93       	push	r17
  b8:	cf 93       	push	r28
  ba:	df 93       	push	r29
  bc:	8b 01       	movw	r16, r22
  be:	c4 2f       	mov	r28, r20
  c0:	97 98       	cbi	0x12, 7	; 18
  c2:	f3 df       	rcall	.-26     	; 0xaa <SPI_SendRecvByte>
  c4:	d8 2f       	mov	r29, r24
  c6:	6c 2f       	mov	r22, r28
  c8:	70 e0       	ldi	r23, 0x00	; 0
  ca:	c8 01       	movw	r24, r16
  cc:	de df       	rcall	.-68     	; 0x8a <SPI_recv8b>
  ce:	97 9a       	sbi	0x12, 7	; 18
  d0:	8d 2f       	mov	r24, r29
  d2:	df 91       	pop	r29
  d4:	cf 91       	pop	r28
  d6:	1f 91       	pop	r17
  d8:	0f 91       	pop	r16
  da:	08 95       	ret

000000dc <nrf24_write>:
  dc:	0f 93       	push	r16
  de:	1f 93       	push	r17
  e0:	cf 93       	push	r28
  e2:	df 93       	push	r29
  e4:	8b 01       	movw	r16, r22
  e6:	c4 2f       	mov	r28, r20
  e8:	97 98       	cbi	0x12, 7	; 18
  ea:	df df       	rcall	.-66     	; 0xaa <SPI_SendRecvByte>
  ec:	d8 2f       	mov	r29, r24
  ee:	6c 2f       	mov	r22, r28
  f0:	70 e0       	ldi	r23, 0x00	; 0
  f2:	c8 01       	movw	r24, r16
  f4:	bc df       	rcall	.-136    	; 0x6e <SPI_send8b>
  f6:	97 9a       	sbi	0x12, 7	; 18
  f8:	8d 2f       	mov	r24, r29
  fa:	df 91       	pop	r29
  fc:	cf 91       	pop	r28
  fe:	1f 91       	pop	r17
 100:	0f 91       	pop	r16
 102:	08 95       	ret

00000104 <nrf24_read_reg>:
 104:	cf 93       	push	r28
 106:	df 93       	push	r29
 108:	1f 92       	push	r1
 10a:	cd b7       	in	r28, 0x3d	; 61
 10c:	de b7       	in	r29, 0x3e	; 62
 10e:	19 82       	std	Y+1, r1	; 0x01
 110:	41 e0       	ldi	r20, 0x01	; 1
 112:	be 01       	movw	r22, r28
 114:	6f 5f       	subi	r22, 0xFF	; 255
 116:	7f 4f       	sbci	r23, 0xFF	; 255
 118:	8f 71       	andi	r24, 0x1F	; 31
 11a:	cc df       	rcall	.-104    	; 0xb4 <nrf24_read>
 11c:	89 81       	ldd	r24, Y+1	; 0x01
 11e:	0f 90       	pop	r0
 120:	df 91       	pop	r29
 122:	cf 91       	pop	r28
 124:	08 95       	ret

00000126 <nrf24_read_regs>:
 126:	8f 71       	andi	r24, 0x1F	; 31
 128:	c5 df       	rcall	.-118    	; 0xb4 <nrf24_read>
 12a:	08 95       	ret

0000012c <nrf24_write_reg>:
 12c:	cf 93       	push	r28
 12e:	df 93       	push	r29
 130:	1f 92       	push	r1
 132:	cd b7       	in	r28, 0x3d	; 61
 134:	de b7       	in	r29, 0x3e	; 62
 136:	69 83       	std	Y+1, r22	; 0x01
 138:	8f 71       	andi	r24, 0x1F	; 31
 13a:	41 e0       	ldi	r20, 0x01	; 1
 13c:	be 01       	movw	r22, r28
 13e:	6f 5f       	subi	r22, 0xFF	; 255
 140:	7f 4f       	sbci	r23, 0xFF	; 255
 142:	80 62       	ori	r24, 0x20	; 32
 144:	cb df       	rcall	.-106    	; 0xdc <nrf24_write>
 146:	0f 90       	pop	r0
 148:	df 91       	pop	r29
 14a:	cf 91       	pop	r28
 14c:	08 95       	ret

0000014e <nrf24_write_regs>:
 14e:	8f 71       	andi	r24, 0x1F	; 31
 150:	80 62       	ori	r24, 0x20	; 32
 152:	c4 df       	rcall	.-120    	; 0xdc <nrf24_write>
 154:	08 95       	ret

00000156 <nrf24_SetChannel>:
 156:	cf 93       	push	r28
 158:	df 93       	push	r29
 15a:	1f 92       	push	r1
 15c:	cd b7       	in	r28, 0x3d	; 61
 15e:	de b7       	in	r29, 0x3e	; 62
 160:	8f 77       	andi	r24, 0x7F	; 127
 162:	89 83       	std	Y+1, r24	; 0x01
 164:	41 e0       	ldi	r20, 0x01	; 1
 166:	be 01       	movw	r22, r28
 168:	6f 5f       	subi	r22, 0xFF	; 255
 16a:	7f 4f       	sbci	r23, 0xFF	; 255
 16c:	85 e0       	ldi	r24, 0x05	; 5
 16e:	ef df       	rcall	.-34     	; 0x14e <nrf24_write_regs>
 170:	0f 90       	pop	r0
 172:	df 91       	pop	r29
 174:	cf 91       	pop	r28
 176:	08 95       	ret

00000178 <nrf24_FlushRx>:
 178:	40 e0       	ldi	r20, 0x00	; 0
 17a:	60 e0       	ldi	r22, 0x00	; 0
 17c:	70 e0       	ldi	r23, 0x00	; 0
 17e:	82 ee       	ldi	r24, 0xE2	; 226
 180:	ad df       	rcall	.-166    	; 0xdc <nrf24_write>
 182:	08 95       	ret

00000184 <nrf24_FlushTx>:
 184:	40 e0       	ldi	r20, 0x00	; 0
 186:	60 e0       	ldi	r22, 0x00	; 0
 188:	70 e0       	ldi	r23, 0x00	; 0
 18a:	81 ee       	ldi	r24, 0xE1	; 225
 18c:	a7 df       	rcall	.-178    	; 0xdc <nrf24_write>
 18e:	08 95       	ret

00000190 <nrf24_Write_TxPayload>:
 190:	46 2f       	mov	r20, r22
 192:	61 32       	cpi	r22, 0x21	; 33
 194:	08 f0       	brcs	.+2      	; 0x198 <nrf24_Write_TxPayload+0x8>
 196:	40 e2       	ldi	r20, 0x20	; 32
 198:	bc 01       	movw	r22, r24
 19a:	80 ea       	ldi	r24, 0xA0	; 160
 19c:	9f df       	rcall	.-194    	; 0xdc <nrf24_write>
 19e:	08 95       	ret

000001a0 <nrf24_SetOutputPower>:
 1a0:	1f 93       	push	r17
 1a2:	cf 93       	push	r28
 1a4:	df 93       	push	r29
 1a6:	1f 92       	push	r1
 1a8:	cd b7       	in	r28, 0x3d	; 61
 1aa:	de b7       	in	r29, 0x3e	; 62
 1ac:	18 2f       	mov	r17, r24
 1ae:	41 e0       	ldi	r20, 0x01	; 1
 1b0:	be 01       	movw	r22, r28
 1b2:	6f 5f       	subi	r22, 0xFF	; 255
 1b4:	7f 4f       	sbci	r23, 0xFF	; 255
 1b6:	86 e0       	ldi	r24, 0x06	; 6
 1b8:	b6 df       	rcall	.-148    	; 0x126 <nrf24_read_regs>
 1ba:	81 2f       	mov	r24, r17
 1bc:	14 30       	cpi	r17, 0x04	; 4
 1be:	08 f0       	brcs	.+2      	; 0x1c2 <nrf24_SetOutputPower+0x22>
 1c0:	83 e0       	ldi	r24, 0x03	; 3
 1c2:	83 70       	andi	r24, 0x03	; 3
 1c4:	98 2f       	mov	r25, r24
 1c6:	99 0f       	add	r25, r25
 1c8:	89 81       	ldd	r24, Y+1	; 0x01
 1ca:	89 7f       	andi	r24, 0xF9	; 249
 1cc:	89 2b       	or	r24, r25
 1ce:	89 83       	std	Y+1, r24	; 0x01
 1d0:	41 e0       	ldi	r20, 0x01	; 1
 1d2:	be 01       	movw	r22, r28
 1d4:	6f 5f       	subi	r22, 0xFF	; 255
 1d6:	7f 4f       	sbci	r23, 0xFF	; 255
 1d8:	86 e0       	ldi	r24, 0x06	; 6
 1da:	b9 df       	rcall	.-142    	; 0x14e <nrf24_write_regs>
 1dc:	0f 90       	pop	r0
 1de:	df 91       	pop	r29
 1e0:	cf 91       	pop	r28
 1e2:	1f 91       	pop	r17
 1e4:	08 95       	ret

000001e6 <nrf24_SetDataRate>:
 1e6:	1f 93       	push	r17
 1e8:	cf 93       	push	r28
 1ea:	df 93       	push	r29
 1ec:	1f 92       	push	r1
 1ee:	cd b7       	in	r28, 0x3d	; 61
 1f0:	de b7       	in	r29, 0x3e	; 62
 1f2:	18 2f       	mov	r17, r24
 1f4:	41 e0       	ldi	r20, 0x01	; 1
 1f6:	be 01       	movw	r22, r28
 1f8:	6f 5f       	subi	r22, 0xFF	; 255
 1fa:	7f 4f       	sbci	r23, 0xFF	; 255
 1fc:	86 e0       	ldi	r24, 0x06	; 6
 1fe:	93 df       	rcall	.-218    	; 0x126 <nrf24_read_regs>
 200:	81 2f       	mov	r24, r17
 202:	13 30       	cpi	r17, 0x03	; 3
 204:	08 f0       	brcs	.+2      	; 0x208 <nrf24_SetDataRate+0x22>
 206:	82 e0       	ldi	r24, 0x02	; 2
 208:	81 30       	cpi	r24, 0x01	; 1
 20a:	49 f0       	breq	.+18     	; 0x21e <nrf24_SetDataRate+0x38>
 20c:	18 f0       	brcs	.+6      	; 0x214 <nrf24_SetDataRate+0x2e>
 20e:	82 30       	cpi	r24, 0x02	; 2
 210:	59 f0       	breq	.+22     	; 0x228 <nrf24_SetDataRate+0x42>
 212:	0e c0       	rjmp	.+28     	; 0x230 <nrf24_SetDataRate+0x4a>
 214:	89 81       	ldd	r24, Y+1	; 0x01
 216:	87 7f       	andi	r24, 0xF7	; 247
 218:	80 62       	ori	r24, 0x20	; 32
 21a:	89 83       	std	Y+1, r24	; 0x01
 21c:	09 c0       	rjmp	.+18     	; 0x230 <nrf24_SetDataRate+0x4a>
 21e:	89 81       	ldd	r24, Y+1	; 0x01
 220:	87 7f       	andi	r24, 0xF7	; 247
 222:	8f 7d       	andi	r24, 0xDF	; 223
 224:	89 83       	std	Y+1, r24	; 0x01
 226:	04 c0       	rjmp	.+8      	; 0x230 <nrf24_SetDataRate+0x4a>
 228:	89 81       	ldd	r24, Y+1	; 0x01
 22a:	88 60       	ori	r24, 0x08	; 8
 22c:	8f 7d       	andi	r24, 0xDF	; 223
 22e:	89 83       	std	Y+1, r24	; 0x01
 230:	41 e0       	ldi	r20, 0x01	; 1
 232:	be 01       	movw	r22, r28
 234:	6f 5f       	subi	r22, 0xFF	; 255
 236:	7f 4f       	sbci	r23, 0xFF	; 255
 238:	86 e0       	ldi	r24, 0x06	; 6
 23a:	89 df       	rcall	.-238    	; 0x14e <nrf24_write_regs>
 23c:	0f 90       	pop	r0
 23e:	df 91       	pop	r29
 240:	cf 91       	pop	r28
 242:	1f 91       	pop	r17
 244:	08 95       	ret

00000246 <nrf24_SetCRCLen>:
 246:	1f 93       	push	r17
 248:	cf 93       	push	r28
 24a:	df 93       	push	r29
 24c:	1f 92       	push	r1
 24e:	cd b7       	in	r28, 0x3d	; 61
 250:	de b7       	in	r29, 0x3e	; 62
 252:	18 2f       	mov	r17, r24
 254:	41 e0       	ldi	r20, 0x01	; 1
 256:	be 01       	movw	r22, r28
 258:	6f 5f       	subi	r22, 0xFF	; 255
 25a:	7f 4f       	sbci	r23, 0xFF	; 255
 25c:	80 e0       	ldi	r24, 0x00	; 0
 25e:	63 df       	rcall	.-314    	; 0x126 <nrf24_read_regs>
 260:	11 23       	and	r17, r17
 262:	61 f0       	breq	.+24     	; 0x27c <nrf24_SetCRCLen+0x36>
 264:	89 81       	ldd	r24, Y+1	; 0x01
 266:	88 60       	ori	r24, 0x08	; 8
 268:	89 83       	std	Y+1, r24	; 0x01
 26a:	91 e0       	ldi	r25, 0x01	; 1
 26c:	11 30       	cpi	r17, 0x01	; 1
 26e:	09 f4       	brne	.+2      	; 0x272 <nrf24_SetCRCLen+0x2c>
 270:	90 e0       	ldi	r25, 0x00	; 0
 272:	89 81       	ldd	r24, Y+1	; 0x01
 274:	90 fb       	bst	r25, 0
 276:	82 f9       	bld	r24, 2
 278:	89 83       	std	Y+1, r24	; 0x01
 27a:	03 c0       	rjmp	.+6      	; 0x282 <nrf24_SetCRCLen+0x3c>
 27c:	89 81       	ldd	r24, Y+1	; 0x01
 27e:	87 7f       	andi	r24, 0xF7	; 247
 280:	89 83       	std	Y+1, r24	; 0x01
 282:	41 e0       	ldi	r20, 0x01	; 1
 284:	be 01       	movw	r22, r28
 286:	6f 5f       	subi	r22, 0xFF	; 255
 288:	7f 4f       	sbci	r23, 0xFF	; 255
 28a:	80 e0       	ldi	r24, 0x00	; 0
 28c:	60 df       	rcall	.-320    	; 0x14e <nrf24_write_regs>
 28e:	0f 90       	pop	r0
 290:	df 91       	pop	r29
 292:	cf 91       	pop	r28
 294:	1f 91       	pop	r17
 296:	08 95       	ret

00000298 <nrf24_SetDynLen>:
 298:	0f 93       	push	r16
 29a:	1f 93       	push	r17
 29c:	cf 93       	push	r28
 29e:	df 93       	push	r29
 2a0:	1f 92       	push	r1
 2a2:	cd b7       	in	r28, 0x3d	; 61
 2a4:	de b7       	in	r29, 0x3e	; 62
 2a6:	86 30       	cpi	r24, 0x06	; 6
 2a8:	30 f5       	brcc	.+76     	; 0x2f6 <nrf24_SetDynLen+0x5e>
 2aa:	06 2f       	mov	r16, r22
 2ac:	18 2f       	mov	r17, r24
 2ae:	41 e0       	ldi	r20, 0x01	; 1
 2b0:	be 01       	movw	r22, r28
 2b2:	6f 5f       	subi	r22, 0xFF	; 255
 2b4:	7f 4f       	sbci	r23, 0xFF	; 255
 2b6:	8c e1       	ldi	r24, 0x1C	; 28
 2b8:	36 df       	rcall	.-404    	; 0x126 <nrf24_read_regs>
 2ba:	00 23       	and	r16, r16
 2bc:	59 f0       	breq	.+22     	; 0x2d4 <nrf24_SetDynLen+0x3c>
 2be:	81 e0       	ldi	r24, 0x01	; 1
 2c0:	90 e0       	ldi	r25, 0x00	; 0
 2c2:	02 c0       	rjmp	.+4      	; 0x2c8 <nrf24_SetDynLen+0x30>
 2c4:	88 0f       	add	r24, r24
 2c6:	99 1f       	adc	r25, r25
 2c8:	1a 95       	dec	r17
 2ca:	e2 f7       	brpl	.-8      	; 0x2c4 <nrf24_SetDynLen+0x2c>
 2cc:	99 81       	ldd	r25, Y+1	; 0x01
 2ce:	89 2b       	or	r24, r25
 2d0:	89 83       	std	Y+1, r24	; 0x01
 2d2:	0b c0       	rjmp	.+22     	; 0x2ea <nrf24_SetDynLen+0x52>
 2d4:	81 e0       	ldi	r24, 0x01	; 1
 2d6:	90 e0       	ldi	r25, 0x00	; 0
 2d8:	02 c0       	rjmp	.+4      	; 0x2de <nrf24_SetDynLen+0x46>
 2da:	88 0f       	add	r24, r24
 2dc:	99 1f       	adc	r25, r25
 2de:	1a 95       	dec	r17
 2e0:	e2 f7       	brpl	.-8      	; 0x2da <nrf24_SetDynLen+0x42>
 2e2:	80 95       	com	r24
 2e4:	99 81       	ldd	r25, Y+1	; 0x01
 2e6:	89 23       	and	r24, r25
 2e8:	89 83       	std	Y+1, r24	; 0x01
 2ea:	41 e0       	ldi	r20, 0x01	; 1
 2ec:	be 01       	movw	r22, r28
 2ee:	6f 5f       	subi	r22, 0xFF	; 255
 2f0:	7f 4f       	sbci	r23, 0xFF	; 255
 2f2:	8c e1       	ldi	r24, 0x1C	; 28
 2f4:	2c df       	rcall	.-424    	; 0x14e <nrf24_write_regs>
 2f6:	0f 90       	pop	r0
 2f8:	df 91       	pop	r29
 2fa:	cf 91       	pop	r28
 2fc:	1f 91       	pop	r17
 2fe:	0f 91       	pop	r16
 300:	08 95       	ret

00000302 <nrf24_DynPayload_OnOff>:
 302:	1f 93       	push	r17
 304:	cf 93       	push	r28
 306:	df 93       	push	r29
 308:	1f 92       	push	r1
 30a:	cd b7       	in	r28, 0x3d	; 61
 30c:	de b7       	in	r29, 0x3e	; 62
 30e:	18 2f       	mov	r17, r24
 310:	41 e0       	ldi	r20, 0x01	; 1
 312:	be 01       	movw	r22, r28
 314:	6f 5f       	subi	r22, 0xFF	; 255
 316:	7f 4f       	sbci	r23, 0xFF	; 255
 318:	8d e1       	ldi	r24, 0x1D	; 29
 31a:	05 df       	rcall	.-502    	; 0x126 <nrf24_read_regs>
 31c:	91 e0       	ldi	r25, 0x01	; 1
 31e:	11 11       	cpse	r17, r1
 320:	01 c0       	rjmp	.+2      	; 0x324 <nrf24_DynPayload_OnOff+0x22>
 322:	90 e0       	ldi	r25, 0x00	; 0
 324:	89 81       	ldd	r24, Y+1	; 0x01
 326:	90 fb       	bst	r25, 0
 328:	82 f9       	bld	r24, 2
 32a:	89 83       	std	Y+1, r24	; 0x01
 32c:	41 e0       	ldi	r20, 0x01	; 1
 32e:	be 01       	movw	r22, r28
 330:	6f 5f       	subi	r22, 0xFF	; 255
 332:	7f 4f       	sbci	r23, 0xFF	; 255
 334:	8d e1       	ldi	r24, 0x1D	; 29
 336:	0b df       	rcall	.-490    	; 0x14e <nrf24_write_regs>
 338:	0f 90       	pop	r0
 33a:	df 91       	pop	r29
 33c:	cf 91       	pop	r28
 33e:	1f 91       	pop	r17
 340:	08 95       	ret

00000342 <nrf24_AutoRetrasmission_Setup>:
 342:	cf 93       	push	r28
 344:	df 93       	push	r29
 346:	1f 92       	push	r1
 348:	cd b7       	in	r28, 0x3d	; 61
 34a:	de b7       	in	r29, 0x3e	; 62
 34c:	80 31       	cpi	r24, 0x10	; 16
 34e:	08 f0       	brcs	.+2      	; 0x352 <nrf24_AutoRetrasmission_Setup+0x10>
 350:	8f e0       	ldi	r24, 0x0F	; 15
 352:	8f 70       	andi	r24, 0x0F	; 15
 354:	99 81       	ldd	r25, Y+1	; 0x01
 356:	90 7f       	andi	r25, 0xF0	; 240
 358:	89 2b       	or	r24, r25
 35a:	89 83       	std	Y+1, r24	; 0x01
 35c:	60 31       	cpi	r22, 0x10	; 16
 35e:	08 f0       	brcs	.+2      	; 0x362 <nrf24_AutoRetrasmission_Setup+0x20>
 360:	6f e0       	ldi	r22, 0x0F	; 15
 362:	62 95       	swap	r22
 364:	60 7f       	andi	r22, 0xF0	; 240
 366:	89 81       	ldd	r24, Y+1	; 0x01
 368:	8f 70       	andi	r24, 0x0F	; 15
 36a:	68 2b       	or	r22, r24
 36c:	69 83       	std	Y+1, r22	; 0x01
 36e:	41 e0       	ldi	r20, 0x01	; 1
 370:	be 01       	movw	r22, r28
 372:	6f 5f       	subi	r22, 0xFF	; 255
 374:	7f 4f       	sbci	r23, 0xFF	; 255
 376:	84 e0       	ldi	r24, 0x04	; 4
 378:	ea de       	rcall	.-556    	; 0x14e <nrf24_write_regs>
 37a:	0f 90       	pop	r0
 37c:	df 91       	pop	r29
 37e:	cf 91       	pop	r28
 380:	08 95       	ret

00000382 <nrf24_Set_PTX_Mode>:
 382:	96 98       	cbi	0x12, 6	; 18
 384:	f9 de       	rcall	.-526    	; 0x178 <nrf24_FlushRx>
 386:	fe de       	rcall	.-516    	; 0x184 <nrf24_FlushTx>
 388:	08 95       	ret

0000038a <nrf24_RxPipe_Setup>:
 38a:	cf 92       	push	r12
 38c:	df 92       	push	r13
 38e:	ef 92       	push	r14
 390:	ff 92       	push	r15
 392:	0f 93       	push	r16
 394:	1f 93       	push	r17
 396:	cf 93       	push	r28
 398:	df 93       	push	r29
 39a:	86 30       	cpi	r24, 0x06	; 6
 39c:	08 f0       	brcs	.+2      	; 0x3a0 <nrf24_RxPipe_Setup+0x16>
 39e:	6d c0       	rjmp	.+218    	; 0x47a <__stack+0x1b>
 3a0:	04 2f       	mov	r16, r20
 3a2:	41 32       	cpi	r20, 0x21	; 33
 3a4:	08 f0       	brcs	.+2      	; 0x3a8 <nrf24_RxPipe_Setup+0x1e>
 3a6:	00 e2       	ldi	r16, 0x20	; 32
 3a8:	c8 2f       	mov	r28, r24
 3aa:	d0 e0       	ldi	r29, 0x00	; 0
 3ac:	9e 01       	movw	r18, r28
 3ae:	22 0f       	add	r18, r18
 3b0:	33 1f       	adc	r19, r19
 3b2:	d9 01       	movw	r26, r18
 3b4:	ac 0f       	add	r26, r28
 3b6:	bd 1f       	adc	r27, r29
 3b8:	aa 0f       	add	r26, r26
 3ba:	bb 1f       	adc	r27, r27
 3bc:	a8 56       	subi	r26, 0x68	; 104
 3be:	bf 4f       	sbci	r27, 0xFF	; 255
 3c0:	95 e0       	ldi	r25, 0x05	; 5
 3c2:	fb 01       	movw	r30, r22
 3c4:	01 90       	ld	r0, Z+
 3c6:	0d 92       	st	X+, r0
 3c8:	9a 95       	dec	r25
 3ca:	e1 f7       	brne	.-8      	; 0x3c4 <nrf24_RxPipe_Setup+0x3a>
 3cc:	d9 01       	movw	r26, r18
 3ce:	ac 0f       	add	r26, r28
 3d0:	bd 1f       	adc	r27, r29
 3d2:	aa 0f       	add	r26, r26
 3d4:	bb 1f       	adc	r27, r27
 3d6:	a9 56       	subi	r26, 0x69	; 105
 3d8:	bf 4f       	sbci	r27, 0xFF	; 255
 3da:	90 2f       	mov	r25, r16
 3dc:	9f 73       	andi	r25, 0x3F	; 63
 3de:	29 2f       	mov	r18, r25
 3e0:	22 0f       	add	r18, r18
 3e2:	9c 91       	ld	r25, X
 3e4:	91 78       	andi	r25, 0x81	; 129
 3e6:	92 2b       	or	r25, r18
 3e8:	9c 93       	st	X, r25
 3ea:	91 e0       	ldi	r25, 0x01	; 1
 3ec:	01 11       	cpse	r16, r1
 3ee:	90 e0       	ldi	r25, 0x00	; 0
 3f0:	6b 01       	movw	r12, r22
 3f2:	18 2f       	mov	r17, r24
 3f4:	7e 01       	movw	r14, r28
 3f6:	ee 0c       	add	r14, r14
 3f8:	ff 1c       	adc	r15, r15
 3fa:	ec 0e       	add	r14, r28
 3fc:	fd 1e       	adc	r15, r29
 3fe:	97 01       	movw	r18, r14
 400:	22 0f       	add	r18, r18
 402:	33 1f       	adc	r19, r19
 404:	a9 01       	movw	r20, r18
 406:	49 56       	subi	r20, 0x69	; 105
 408:	5f 4f       	sbci	r21, 0xFF	; 255
 40a:	7a 01       	movw	r14, r20
 40c:	fa 01       	movw	r30, r20
 40e:	80 81       	ld	r24, Z
 410:	90 fb       	bst	r25, 0
 412:	80 f9       	bld	r24, 0
 414:	80 83       	st	Z, r24
 416:	69 2f       	mov	r22, r25
 418:	81 2f       	mov	r24, r17
 41a:	3e df       	rcall	.-388    	; 0x298 <nrf24_SetDynLen>
 41c:	f7 01       	movw	r30, r14
 41e:	80 81       	ld	r24, Z
 420:	80 ff       	sbrs	r24, 0
 422:	02 c0       	rjmp	.+4      	; 0x428 <__FUSE_REGION_LENGTH__+0x28>
 424:	81 e0       	ldi	r24, 0x01	; 1
 426:	6d df       	rcall	.-294    	; 0x302 <nrf24_DynPayload_OnOff>
 428:	12 30       	cpi	r17, 0x02	; 2
 42a:	30 f4       	brcc	.+12     	; 0x438 <__FUSE_REGION_LENGTH__+0x38>
 42c:	45 e0       	ldi	r20, 0x05	; 5
 42e:	b6 01       	movw	r22, r12
 430:	8a e0       	ldi	r24, 0x0A	; 10
 432:	81 0f       	add	r24, r17
 434:	8c de       	rcall	.-744    	; 0x14e <nrf24_write_regs>
 436:	05 c0       	rjmp	.+10     	; 0x442 <__FUSE_REGION_LENGTH__+0x42>
 438:	41 e0       	ldi	r20, 0x01	; 1
 43a:	b6 01       	movw	r22, r12
 43c:	8a e0       	ldi	r24, 0x0A	; 10
 43e:	81 0f       	add	r24, r17
 440:	86 de       	rcall	.-756    	; 0x14e <nrf24_write_regs>
 442:	ce 01       	movw	r24, r28
 444:	88 0f       	add	r24, r24
 446:	99 1f       	adc	r25, r25
 448:	c8 0f       	add	r28, r24
 44a:	d9 1f       	adc	r29, r25
 44c:	cc 0f       	add	r28, r28
 44e:	dd 1f       	adc	r29, r29
 450:	c9 56       	subi	r28, 0x69	; 105
 452:	df 4f       	sbci	r29, 0xFF	; 255
 454:	88 81       	ld	r24, Y
 456:	80 fd       	sbrc	r24, 0
 458:	04 c0       	rjmp	.+8      	; 0x462 <__stack+0x3>
 45a:	60 2f       	mov	r22, r16
 45c:	81 e1       	ldi	r24, 0x11	; 17
 45e:	81 0f       	add	r24, r17
 460:	65 de       	rcall	.-822    	; 0x12c <nrf24_write_reg>
 462:	82 e0       	ldi	r24, 0x02	; 2
 464:	4f de       	rcall	.-866    	; 0x104 <nrf24_read_reg>
 466:	61 e0       	ldi	r22, 0x01	; 1
 468:	70 e0       	ldi	r23, 0x00	; 0
 46a:	02 c0       	rjmp	.+4      	; 0x470 <__stack+0x11>
 46c:	66 0f       	add	r22, r22
 46e:	77 1f       	adc	r23, r23
 470:	1a 95       	dec	r17
 472:	e2 f7       	brpl	.-8      	; 0x46c <__stack+0xd>
 474:	68 2b       	or	r22, r24
 476:	82 e0       	ldi	r24, 0x02	; 2
 478:	59 de       	rcall	.-846    	; 0x12c <nrf24_write_reg>
 47a:	df 91       	pop	r29
 47c:	cf 91       	pop	r28
 47e:	1f 91       	pop	r17
 480:	0f 91       	pop	r16
 482:	ff 90       	pop	r15
 484:	ef 90       	pop	r14
 486:	df 90       	pop	r13
 488:	cf 90       	pop	r12
 48a:	08 95       	ret

0000048c <nrf24_ReadState>:
 48c:	40 e0       	ldi	r20, 0x00	; 0
 48e:	60 e0       	ldi	r22, 0x00	; 0
 490:	70 e0       	ldi	r23, 0x00	; 0
 492:	8f ef       	ldi	r24, 0xFF	; 255
 494:	0f de       	rcall	.-994    	; 0xb4 <nrf24_read>
 496:	08 95       	ret

00000498 <nrf24_ResetStateFlags>:
 498:	68 2f       	mov	r22, r24
 49a:	87 e0       	ldi	r24, 0x07	; 7
 49c:	47 de       	rcall	.-882    	; 0x12c <nrf24_write_reg>
 49e:	08 95       	ret

000004a0 <nrf24_Set_PRX_Mode>:
 4a0:	cf 93       	push	r28
 4a2:	df 93       	push	r29
 4a4:	1f 92       	push	r1
 4a6:	cd b7       	in	r28, 0x3d	; 61
 4a8:	de b7       	in	r29, 0x3e	; 62
 4aa:	41 e0       	ldi	r20, 0x01	; 1
 4ac:	be 01       	movw	r22, r28
 4ae:	6f 5f       	subi	r22, 0xFF	; 255
 4b0:	7f 4f       	sbci	r23, 0xFF	; 255
 4b2:	80 e0       	ldi	r24, 0x00	; 0
 4b4:	38 de       	rcall	.-912    	; 0x126 <nrf24_read_regs>
 4b6:	89 81       	ldd	r24, Y+1	; 0x01
 4b8:	81 60       	ori	r24, 0x01	; 1
 4ba:	82 60       	ori	r24, 0x02	; 2
 4bc:	89 83       	std	Y+1, r24	; 0x01
 4be:	41 e0       	ldi	r20, 0x01	; 1
 4c0:	be 01       	movw	r22, r28
 4c2:	6f 5f       	subi	r22, 0xFF	; 255
 4c4:	7f 4f       	sbci	r23, 0xFF	; 255
 4c6:	80 e0       	ldi	r24, 0x00	; 0
 4c8:	42 de       	rcall	.-892    	; 0x14e <nrf24_write_regs>
 4ca:	80 e7       	ldi	r24, 0x70	; 112
 4cc:	e5 df       	rcall	.-54     	; 0x498 <nrf24_ResetStateFlags>
 4ce:	45 e0       	ldi	r20, 0x05	; 5
 4d0:	68 e9       	ldi	r22, 0x98	; 152
 4d2:	70 e0       	ldi	r23, 0x00	; 0
 4d4:	8a e0       	ldi	r24, 0x0A	; 10
 4d6:	3b de       	rcall	.-906    	; 0x14e <nrf24_write_regs>
 4d8:	4f de       	rcall	.-866    	; 0x178 <nrf24_FlushRx>
 4da:	54 de       	rcall	.-856    	; 0x184 <nrf24_FlushTx>
 4dc:	96 9a       	sbi	0x12, 6	; 18
 4de:	8d e0       	ldi	r24, 0x0D	; 13
 4e0:	91 e0       	ldi	r25, 0x01	; 1
 4e2:	01 97       	sbiw	r24, 0x01	; 1
 4e4:	f1 f7       	brne	.-4      	; 0x4e2 <nrf24_Set_PRX_Mode+0x42>
 4e6:	00 c0       	rjmp	.+0      	; 0x4e8 <nrf24_Set_PRX_Mode+0x48>
 4e8:	00 00       	nop
 4ea:	0f 90       	pop	r0
 4ec:	df 91       	pop	r29
 4ee:	cf 91       	pop	r28
 4f0:	08 95       	ret

000004f2 <nrf24_Send>:
 4f2:	df 92       	push	r13
 4f4:	ef 92       	push	r14
 4f6:	ff 92       	push	r15
 4f8:	0f 93       	push	r16
 4fa:	1f 93       	push	r17
 4fc:	cf 93       	push	r28
 4fe:	df 93       	push	r29
 500:	00 d0       	rcall	.+0      	; 0x502 <nrf24_Send+0x10>
 502:	cd b7       	in	r28, 0x3d	; 61
 504:	de b7       	in	r29, 0x3e	; 62
 506:	8c 01       	movw	r16, r24
 508:	7b 01       	movw	r14, r22
 50a:	d4 2e       	mov	r13, r20
 50c:	45 e0       	ldi	r20, 0x05	; 5
 50e:	bc 01       	movw	r22, r24
 510:	8a e0       	ldi	r24, 0x0A	; 10
 512:	1d de       	rcall	.-966    	; 0x14e <nrf24_write_regs>
 514:	45 e0       	ldi	r20, 0x05	; 5
 516:	b8 01       	movw	r22, r16
 518:	80 e1       	ldi	r24, 0x10	; 16
 51a:	19 de       	rcall	.-974    	; 0x14e <nrf24_write_regs>
 51c:	32 df       	rcall	.-412    	; 0x382 <nrf24_Set_PTX_Mode>
 51e:	41 e0       	ldi	r20, 0x01	; 1
 520:	be 01       	movw	r22, r28
 522:	6f 5f       	subi	r22, 0xFF	; 255
 524:	7f 4f       	sbci	r23, 0xFF	; 255
 526:	80 e0       	ldi	r24, 0x00	; 0
 528:	fe dd       	rcall	.-1028   	; 0x126 <nrf24_read_regs>
 52a:	99 81       	ldd	r25, Y+1	; 0x01
 52c:	9e 7f       	andi	r25, 0xFE	; 254
 52e:	92 60       	ori	r25, 0x02	; 2
 530:	99 83       	std	Y+1, r25	; 0x01
 532:	41 e0       	ldi	r20, 0x01	; 1
 534:	be 01       	movw	r22, r28
 536:	6f 5f       	subi	r22, 0xFF	; 255
 538:	7f 4f       	sbci	r23, 0xFF	; 255
 53a:	80 e0       	ldi	r24, 0x00	; 0
 53c:	08 de       	rcall	.-1008   	; 0x14e <nrf24_write_regs>
 53e:	8d e0       	ldi	r24, 0x0D	; 13
 540:	91 e0       	ldi	r25, 0x01	; 1
 542:	01 97       	sbiw	r24, 0x01	; 1
 544:	f1 f7       	brne	.-4      	; 0x542 <nrf24_Send+0x50>
 546:	00 c0       	rjmp	.+0      	; 0x548 <nrf24_Send+0x56>
 548:	00 00       	nop
 54a:	6d 2d       	mov	r22, r13
 54c:	c7 01       	movw	r24, r14
 54e:	20 de       	rcall	.-960    	; 0x190 <nrf24_Write_TxPayload>
 550:	96 9a       	sbi	0x12, 6	; 18
 552:	9a e1       	ldi	r25, 0x1A	; 26
 554:	9a 95       	dec	r25
 556:	f1 f7       	brne	.-4      	; 0x554 <nrf24_Send+0x62>
 558:	00 c0       	rjmp	.+0      	; 0x55a <nrf24_Send+0x68>
 55a:	96 98       	cbi	0x12, 6	; 18
 55c:	84 ef       	ldi	r24, 0xF4	; 244
 55e:	91 e0       	ldi	r25, 0x01	; 1
 560:	90 93 96 00 	sts	0x0096, r25	; 0x800096 <NRF24_TO+0x1>
 564:	80 93 95 00 	sts	0x0095, r24	; 0x800095 <NRF24_TO>
 568:	91 df       	rcall	.-222    	; 0x48c <nrf24_ReadState>
 56a:	18 2f       	mov	r17, r24
 56c:	87 ec       	ldi	r24, 0xC7	; 199
 56e:	90 e0       	ldi	r25, 0x00	; 0
 570:	01 97       	sbiw	r24, 0x01	; 1
 572:	f1 f7       	brne	.-4      	; 0x570 <nrf24_Send+0x7e>
 574:	00 c0       	rjmp	.+0      	; 0x576 <nrf24_Send+0x84>
 576:	00 00       	nop
 578:	20 91 95 00 	lds	r18, 0x0095	; 0x800095 <NRF24_TO>
 57c:	30 91 96 00 	lds	r19, 0x0096	; 0x800096 <NRF24_TO+0x1>
 580:	21 50       	subi	r18, 0x01	; 1
 582:	31 09       	sbc	r19, r1
 584:	30 93 96 00 	sts	0x0096, r19	; 0x800096 <NRF24_TO+0x1>
 588:	20 93 95 00 	sts	0x0095, r18	; 0x800095 <NRF24_TO>
 58c:	81 2f       	mov	r24, r17
 58e:	80 73       	andi	r24, 0x30	; 48
 590:	19 f4       	brne	.+6      	; 0x598 <nrf24_Send+0xa6>
 592:	23 2b       	or	r18, r19
 594:	49 f7       	brne	.-46     	; 0x568 <nrf24_Send+0x76>
 596:	04 c0       	rjmp	.+8      	; 0x5a0 <nrf24_Send+0xae>
 598:	23 2b       	or	r18, r19
 59a:	11 f0       	breq	.+4      	; 0x5a0 <nrf24_Send+0xae>
 59c:	80 e3       	ldi	r24, 0x30	; 48
 59e:	7c df       	rcall	.-264    	; 0x498 <nrf24_ResetStateFlags>
 5a0:	41 e0       	ldi	r20, 0x01	; 1
 5a2:	be 01       	movw	r22, r28
 5a4:	6f 5f       	subi	r22, 0xFF	; 255
 5a6:	7f 4f       	sbci	r23, 0xFF	; 255
 5a8:	80 e0       	ldi	r24, 0x00	; 0
 5aa:	bd dd       	rcall	.-1158   	; 0x126 <nrf24_read_regs>
 5ac:	89 81       	ldd	r24, Y+1	; 0x01
 5ae:	81 60       	ori	r24, 0x01	; 1
 5b0:	8d 7f       	andi	r24, 0xFD	; 253
 5b2:	89 83       	std	Y+1, r24	; 0x01
 5b4:	41 e0       	ldi	r20, 0x01	; 1
 5b6:	be 01       	movw	r22, r28
 5b8:	6f 5f       	subi	r22, 0xFF	; 255
 5ba:	7f 4f       	sbci	r23, 0xFF	; 255
 5bc:	80 e0       	ldi	r24, 0x00	; 0
 5be:	c7 dd       	rcall	.-1138   	; 0x14e <nrf24_write_regs>
 5c0:	15 ff       	sbrs	r17, 5
 5c2:	09 c0       	rjmp	.+18     	; 0x5d6 <nrf24_Send+0xe4>
 5c4:	41 e0       	ldi	r20, 0x01	; 1
 5c6:	be 01       	movw	r22, r28
 5c8:	6e 5f       	subi	r22, 0xFE	; 254
 5ca:	7f 4f       	sbci	r23, 0xFF	; 255
 5cc:	88 e0       	ldi	r24, 0x08	; 8
 5ce:	ab dd       	rcall	.-1194   	; 0x126 <nrf24_read_regs>
 5d0:	1a 81       	ldd	r17, Y+2	; 0x02
 5d2:	1f 70       	andi	r17, 0x0F	; 15
 5d4:	01 c0       	rjmp	.+2      	; 0x5d8 <nrf24_Send+0xe6>
 5d6:	1f ef       	ldi	r17, 0xFF	; 255
 5d8:	63 df       	rcall	.-314    	; 0x4a0 <nrf24_Set_PRX_Mode>
 5da:	81 2f       	mov	r24, r17
 5dc:	0f 90       	pop	r0
 5de:	0f 90       	pop	r0
 5e0:	df 91       	pop	r29
 5e2:	cf 91       	pop	r28
 5e4:	1f 91       	pop	r17
 5e6:	0f 91       	pop	r16
 5e8:	ff 90       	pop	r15
 5ea:	ef 90       	pop	r14
 5ec:	df 90       	pop	r13
 5ee:	08 95       	ret

000005f0 <nrf24_init>:
 5f0:	cf 93       	push	r28
 5f2:	c8 2f       	mov	r28, r24
 5f4:	8f 9a       	sbi	0x11, 7	; 17
 5f6:	8e 9a       	sbi	0x11, 6	; 17
 5f8:	97 9a       	sbi	0x12, 7	; 18
 5fa:	96 9a       	sbi	0x12, 6	; 18
 5fc:	30 dd       	rcall	.-1440   	; 0x5e <spim_init>
 5fe:	2f ef       	ldi	r18, 0xFF	; 255
 600:	80 e7       	ldi	r24, 0x70	; 112
 602:	92 e0       	ldi	r25, 0x02	; 2
 604:	21 50       	subi	r18, 0x01	; 1
 606:	80 40       	sbci	r24, 0x00	; 0
 608:	90 40       	sbci	r25, 0x00	; 0
 60a:	e1 f7       	brne	.-8      	; 0x604 <nrf24_init+0x14>
 60c:	00 c0       	rjmp	.+0      	; 0x60e <nrf24_init+0x1e>
 60e:	00 00       	nop
 610:	64 e0       	ldi	r22, 0x04	; 4
 612:	8f e0       	ldi	r24, 0x0F	; 15
 614:	96 de       	rcall	.-724    	; 0x342 <nrf24_AutoRetrasmission_Setup>
 616:	83 e0       	ldi	r24, 0x03	; 3
 618:	c3 dd       	rcall	.-1146   	; 0x1a0 <nrf24_SetOutputPower>
 61a:	80 e0       	ldi	r24, 0x00	; 0
 61c:	e4 dd       	rcall	.-1080   	; 0x1e6 <nrf24_SetDataRate>
 61e:	82 e0       	ldi	r24, 0x02	; 2
 620:	12 de       	rcall	.-988    	; 0x246 <nrf24_SetCRCLen>
 622:	80 e7       	ldi	r24, 0x70	; 112
 624:	39 df       	rcall	.-398    	; 0x498 <nrf24_ResetStateFlags>
 626:	8c 2f       	mov	r24, r28
 628:	96 dd       	rcall	.-1236   	; 0x156 <nrf24_SetChannel>
 62a:	a6 dd       	rcall	.-1204   	; 0x178 <nrf24_FlushRx>
 62c:	ab dd       	rcall	.-1194   	; 0x184 <nrf24_FlushTx>
 62e:	38 df       	rcall	.-400    	; 0x4a0 <nrf24_Set_PRX_Mode>
 630:	cf 91       	pop	r28
 632:	08 95       	ret

00000634 <initUART>:
 634:	10 bc       	out	0x20, r1	; 32
 636:	83 e3       	ldi	r24, 0x33	; 51
 638:	89 b9       	out	0x09, r24	; 9
 63a:	53 9a       	sbi	0x0a, 3	; 10
 63c:	8a b1       	in	r24, 0x0a	; 10
 63e:	80 69       	ori	r24, 0x90	; 144
 640:	8a b9       	out	0x0a, r24	; 10
 642:	80 b5       	in	r24, 0x20	; 32
 644:	86 68       	ori	r24, 0x86	; 134
 646:	80 bd       	out	0x20, r24	; 32
 648:	08 95       	ret

0000064a <main>:
	#else
		//round up by default
		__ticks_dc = (uint32_t)(ceil(fabs(__tmp)));
	#endif

	__builtin_avr_delay_cycles(__ticks_dc);
 64a:	2f ef       	ldi	r18, 0xFF	; 255
 64c:	8e e9       	ldi	r24, 0x9E	; 158
 64e:	94 e2       	ldi	r25, 0x24	; 36
 650:	21 50       	subi	r18, 0x01	; 1
 652:	80 40       	sbci	r24, 0x00	; 0
 654:	90 40       	sbci	r25, 0x00	; 0
 656:	e1 f7       	brne	.-8      	; 0x650 <main+0x6>
 658:	00 c0       	rjmp	.+0      	; 0x65a <main+0x10>
 65a:	00 00       	nop
  //initDirPorts();
  // Инициализация nRF24
  //initPWM();//Включаем ШИМ
  
  
  initUART();
 65c:	eb df       	rcall	.-42     	; 0x634 <initUART>
  
  
  nrf24_init(nRF_CHANNEL);
 65e:	86 e4       	ldi	r24, 0x46	; 70
 660:	c7 df       	rcall	.-114    	; 0x5f0 <nrf24_init>
  // Настройка соединения, установка адреса
  nrf24_RxPipe_Setup(0, Addr, nRF_PaketLen);  
 662:	41 e0       	ldi	r20, 0x01	; 1
 664:	60 e8       	ldi	r22, 0x80	; 128
 666:	70 e0       	ldi	r23, 0x00	; 0
 668:	80 e0       	ldi	r24, 0x00	; 0
 66a:	8f de       	rcall	.-738    	; 0x38a <nrf24_RxPipe_Setup>
  
  sei();  
 66c:	78 94       	sei
  
    // Если размер пакета = 0, то используется переменная длина пакета
    
#if (nRF_isTX_DEMO)
  
  Len = nRF_PaketLen;
 66e:	81 e0       	ldi	r24, 0x01	; 1
 670:	80 93 94 00 	sts	0x0094, r24	; 0x800094 <Len>
  while (1)
  {
	  if(needtransmitflag)
	  {
		  cli();
		  Buff[0]=frame;
 674:	c0 e6       	ldi	r28, 0x60	; 96
 676:	d0 e0       	ldi	r29, 0x00	; 0
#if (nRF_isTX_DEMO)
  
  Len = nRF_PaketLen;
  while (1)
  {
	  if(needtransmitflag)
 678:	80 91 87 00 	lds	r24, 0x0087	; 0x800087 <needtransmitflag>
 67c:	88 23       	and	r24, r24
 67e:	09 f4       	brne	.+2      	; 0x682 <main+0x38>
 680:	50 c0       	rjmp	.+160    	; 0x722 <main+0xd8>
	  {
		  cli();
 682:	f8 94       	cli
		  Buff[0]=frame;
 684:	80 91 86 00 	lds	r24, 0x0086	; 0x800086 <__data_end>
 688:	88 83       	st	Y, r24
     int8_t TryNum = nrf24_Send(Addr, Buff, Len);        // Отправка пакета
 68a:	40 91 94 00 	lds	r20, 0x0094	; 0x800094 <Len>
 68e:	be 01       	movw	r22, r28
 690:	80 e8       	ldi	r24, 0x80	; 128
 692:	90 e0       	ldi	r25, 0x00	; 0
 694:	2e df       	rcall	.-420    	; 0x4f2 <nrf24_Send>
     if (TryNum >= 0)            // Пакет успешно был отправлен
 696:	88 23       	and	r24, r24
 698:	74 f1       	brlt	.+92     	; 0x6f6 <main+0xac>
     {
	     Counter++;                // Считаем кол-во отправленных пакетов
 69a:	40 91 90 00 	lds	r20, 0x0090	; 0x800090 <Counter>
 69e:	50 91 91 00 	lds	r21, 0x0091	; 0x800091 <Counter+0x1>
 6a2:	60 91 92 00 	lds	r22, 0x0092	; 0x800092 <Counter+0x2>
 6a6:	70 91 93 00 	lds	r23, 0x0093	; 0x800093 <Counter+0x3>
 6aa:	4f 5f       	subi	r20, 0xFF	; 255
 6ac:	5f 4f       	sbci	r21, 0xFF	; 255
 6ae:	6f 4f       	sbci	r22, 0xFF	; 255
 6b0:	7f 4f       	sbci	r23, 0xFF	; 255
 6b2:	40 93 90 00 	sts	0x0090, r20	; 0x800090 <Counter>
 6b6:	50 93 91 00 	sts	0x0091, r21	; 0x800091 <Counter+0x1>
 6ba:	60 93 92 00 	sts	0x0092, r22	; 0x800092 <Counter+0x2>
 6be:	70 93 93 00 	sts	0x0093, r23	; 0x800093 <Counter+0x3>
	     TryCounter += TryNum;     // Считаем общее кол-во попыток отправки
 6c2:	08 2e       	mov	r0, r24
 6c4:	00 0c       	add	r0, r0
 6c6:	99 0b       	sbc	r25, r25
 6c8:	aa 0b       	sbc	r26, r26
 6ca:	bb 0b       	sbc	r27, r27
 6cc:	40 91 8c 00 	lds	r20, 0x008C	; 0x80008c <TryCounter>
 6d0:	50 91 8d 00 	lds	r21, 0x008D	; 0x80008d <TryCounter+0x1>
 6d4:	60 91 8e 00 	lds	r22, 0x008E	; 0x80008e <TryCounter+0x2>
 6d8:	70 91 8f 00 	lds	r23, 0x008F	; 0x80008f <TryCounter+0x3>
 6dc:	84 0f       	add	r24, r20
 6de:	95 1f       	adc	r25, r21
 6e0:	a6 1f       	adc	r26, r22
 6e2:	b7 1f       	adc	r27, r23
 6e4:	80 93 8c 00 	sts	0x008C, r24	; 0x80008c <TryCounter>
 6e8:	90 93 8d 00 	sts	0x008D, r25	; 0x80008d <TryCounter+0x1>
 6ec:	a0 93 8e 00 	sts	0x008E, r26	; 0x80008e <TryCounter+0x2>
 6f0:	b0 93 8f 00 	sts	0x008F, r27	; 0x80008f <TryCounter+0x3>
 6f4:	13 c0       	rjmp	.+38     	; 0x71c <main+0xd2>
     }
     else
     Err++;                    // Считаем кол-во ошибок при отправке
 6f6:	80 91 88 00 	lds	r24, 0x0088	; 0x800088 <Err>
 6fa:	90 91 89 00 	lds	r25, 0x0089	; 0x800089 <Err+0x1>
 6fe:	a0 91 8a 00 	lds	r26, 0x008A	; 0x80008a <Err+0x2>
 702:	b0 91 8b 00 	lds	r27, 0x008B	; 0x80008b <Err+0x3>
 706:	01 96       	adiw	r24, 0x01	; 1
 708:	a1 1d       	adc	r26, r1
 70a:	b1 1d       	adc	r27, r1
 70c:	80 93 88 00 	sts	0x0088, r24	; 0x800088 <Err>
 710:	90 93 89 00 	sts	0x0089, r25	; 0x800089 <Err+0x1>
 714:	a0 93 8a 00 	sts	0x008A, r26	; 0x80008a <Err+0x2>
 718:	b0 93 8b 00 	sts	0x008B, r27	; 0x80008b <Err+0x3>
     
     needtransmitflag=0;
 71c:	10 92 87 00 	sts	0x0087, r1	; 0x800087 <needtransmitflag>
	 sei();
 720:	78 94       	sei
 722:	2f e7       	ldi	r18, 0x7F	; 127
 724:	88 e3       	ldi	r24, 0x38	; 56
 726:	91 e0       	ldi	r25, 0x01	; 1
 728:	21 50       	subi	r18, 0x01	; 1
 72a:	80 40       	sbci	r24, 0x00	; 0
 72c:	90 40       	sbci	r25, 0x00	; 0
 72e:	e1 f7       	brne	.-8      	; 0x728 <main+0xde>
 730:	00 c0       	rjmp	.+0      	; 0x732 <main+0xe8>
 732:	00 00       	nop
 734:	a1 cf       	rjmp	.-190    	; 0x678 <main+0x2e>

00000736 <__vector_11>:


}

ISR(USART_RXC_vect)
{
 736:	1f 92       	push	r1
 738:	0f 92       	push	r0
 73a:	0f b6       	in	r0, 0x3f	; 63
 73c:	0f 92       	push	r0
 73e:	11 24       	eor	r1, r1
 740:	8f 93       	push	r24
	frame=UDR;
 742:	8c b1       	in	r24, 0x0c	; 12
 744:	80 93 86 00 	sts	0x0086, r24	; 0x800086 <__data_end>
	needtransmitflag=1;
 748:	81 e0       	ldi	r24, 0x01	; 1
 74a:	80 93 87 00 	sts	0x0087, r24	; 0x800087 <needtransmitflag>
	
}
 74e:	8f 91       	pop	r24
 750:	0f 90       	pop	r0
 752:	0f be       	out	0x3f, r0	; 63
 754:	0f 90       	pop	r0
 756:	1f 90       	pop	r1
 758:	18 95       	reti

0000075a <_exit>:
 75a:	f8 94       	cli

0000075c <__stop_program>:
 75c:	ff cf       	rjmp	.-2      	; 0x75c <__stop_program>
